; Function Attrs: inlinehint mustprogress optsize uwtable
define internal noundef nonnull ptr @"_ZZN8nanobind6detail11func_createILb0ELb1EZL26nanobind_init_test_stl_extRNS_7module_EE4$_33vJPSt6vectorIfSaIfEEfEJLm0ELm1EEJNS_5scopeENS_4nameENS_9is_methodEEEEP7_objectOT1_PFT2_DpT3_ESt16integer_sequenceImJXspT4_EEEDpRKT5_ENUlPvPSD_PhNS_9rv_policyEPNS0_12cleanup_listEE_8__invokeESR_SS_ST_SU_SW_"(ptr readnone captures(none) %0, ptr noundef readonly captures(none) %1, ptr noundef readonly captures(none) %2, i32 %3, ptr noundef %4) #11 align 2 {
  %6 = alloca float, align 4
  %7 = alloca %"struct.nanobind::detail::tuple.490", align 8
  call void @llvm.lifetime.start.p0(i64 16, ptr nonnull %7) #28
  %8 = getelementptr inbounds nuw i8, ptr %7, i64 8
  %9 = load ptr, ptr %1, align 8, !tbaa !131
  %10 = load i8, ptr %2, align 1, !tbaa !44
  %11 = call noundef zeroext i1 @_ZN8nanobind6detail11nb_type_getEPKSt9type_infoP7_objecthPNS0_12cleanup_listEPPv(ptr noundef nonnull @_ZTISt6vectorIfSaIfEE, ptr noundef %9, i8 noundef zeroext %10, ptr noundef %4, ptr noundef nonnull align 8 dereferenceable(8) %8) #27
  br i1 %11, label %12, label %"_ZZN8nanobind6detail11func_createILb0ELb1EZL26nanobind_init_test_stl_extRNS_7module_EE4$_33vJPSt6vectorIfSaIfEEfEJLm0ELm1EEJNS_5scopeENS_4nameENS_9is_methodEEEEP7_objectOT1_PFT2_DpT3_ESt16integer_sequenceImJXspT4_EEEDpRKT5_ENKUlPvPSD_PhNS_9rv_policyEPNS0_12cleanup_listEE_clESR_SS_ST_SU_SW_.exit"

12:                                               ; preds = %5
  %13 = getelementptr inbounds nuw i8, ptr %1, i64 8
  %14 = load ptr, ptr %13, align 8, !tbaa !131
  %15 = getelementptr inbounds nuw i8, ptr %2, i64 1
  %16 = load i8, ptr %15, align 1, !tbaa !44
  %17 = call noundef zeroext i1 @_ZN8nanobind6detail8load_f32EP7_objecthPf(ptr noundef %14, i8 noundef zeroext %16, ptr noundef nonnull align 4 dereferenceable(4) %7) #27
  br i1 %17, label %18, label %"_ZZN8nanobind6detail11func_createILb0ELb1EZL26nanobind_init_test_stl_extRNS_7module_EE4$_33vJPSt6vectorIfSaIfEEfEJLm0ELm1EEJNS_5scopeENS_4nameENS_9is_methodEEEEP7_objectOT1_PFT2_DpT3_ESt16integer_sequenceImJXspT4_EEEDpRKT5_ENKUlPvPSD_PhNS_9rv_policyEPNS0_12cleanup_listEE_clESR_SS_ST_SU_SW_.exit"

18:                                               ; preds = %12
  %19 = load ptr, ptr %8, align 8, !tbaa !338
  %20 = load float, ptr %7, align 8, !tbaa !251
  call void @llvm.lifetime.start.p0(i64 4, ptr nonnull %6)
  store float %20, ptr %6, align 4, !tbaa !251
  %21 = getelementptr inbounds nuw i8, ptr %19, i64 8
  %22 = load ptr, ptr %21, align 8, !tbaa !335
  %23 = getelementptr inbounds nuw i8, ptr %19, i64 16
  %24 = load ptr, ptr %23, align 8, !tbaa !336
  %.not.i.i = icmp eq ptr %22, %24
  br i1 %.not.i.i, label %27, label %25

25:                                               ; preds = %18
  store float %20, ptr %22, align 4, !tbaa !251
  %26 = getelementptr inbounds nuw i8, ptr %22, i64 4
  store ptr %26, ptr %21, align 8, !tbaa !335
  br label %"_ZZL26nanobind_init_test_stl_extRN8nanobind7module_EENK4$_33clEPSt6vectorIfSaIfEEf.exit"

27:                                               ; preds = %18
  call void @_ZNSt6vectorIfSaIfEE17_M_realloc_insertIJRKfEEEvN9__gnu_cxx17__normal_iteratorIPfS1_EEDpOT_(ptr noundef nonnull align 8 dereferenceable(24) %19, ptr %22, ptr noundef nonnull align 4 dereferenceable(4) %6) #30
  br label %"_ZZL26nanobind_init_test_stl_extRN8nanobind7module_EENK4$_33clEPSt6vectorIfSaIfEEf.exit"

"_ZZL26nanobind_init_test_stl_extRN8nanobind7module_EENK4$_33clEPSt6vectorIfSaIfEEf.exit": ; preds = %25, %27
  call void @llvm.lifetime.end.p0(i64 4, ptr nonnull %6)
  %28 = load i64, ptr @_Py_NoneStruct, align 8, !tbaa !69
  %29 = add nsw i64 %28, 1
  store i64 %29, ptr @_Py_NoneStruct, align 8, !tbaa !69
  br label %"_ZZN8nanobind6detail11func_createILb0ELb1EZL26nanobind_init_test_stl_extRNS_7module_EE4$_33vJPSt6vectorIfSaIfEEfEJLm0ELm1EEJNS_5scopeENS_4nameENS_9is_methodEEEEP7_objectOT1_PFT2_DpT3_ESt16integer_sequenceImJXspT4_EEEDpRKT5_ENKUlPvPSD_PhNS_9rv_policyEPNS0_12cleanup_listEE_clESR_SS_ST_SU_SW_.exit"

"_ZZN8nanobind6detail11func_createILb0ELb1EZL26nanobind_init_test_stl_extRNS_7module_EE4$_33vJPSt6vectorIfSaIfEEfEJLm0ELm1EEJNS_5scopeENS_4nameENS_9is_methodEEEEP7_objectOT1_PFT2_DpT3_ESt16integer_sequenceImJXspT4_EEEDpRKT5_ENKUlPvPSD_PhNS_9rv_policyEPNS0_12cleanup_listEE_clESR_SS_ST_SU_SW_.exit": ; preds = %5, %12, %"_ZZL26nanobind_init_test_stl_extRN8nanobind7module_EENK4$_33clEPSt6vectorIfSaIfEEf.exit"
  %.0.i = phi ptr [ @_Py_NoneStruct, %"_ZZL26nanobind_init_test_stl_extRN8nanobind7module_EENK4$_33clEPSt6vectorIfSaIfEEf.exit" ], [ inttoptr (i64 1 to ptr), %12 ], [ inttoptr (i64 1 to ptr), %5 ]
  call void @llvm.lifetime.end.p0(i64 16, ptr nonnull %7) #28
  ret ptr %.0.i
}